; Function Attrs: mustprogress nofree norecurse nosync nounwind willreturn memory(argmem: readwrite) uwtable
define void @_Z15tMPI_Return_reqP8req_listP9tmpi_req_(ptr noundef captures(none) %0, ptr noundef initializes((56, 72)) %1) local_unnamed_addr #5 {
  %3 = load ptr, ptr %0, align 8, !tbaa !39
  %4 = getelementptr inbounds nuw i8, ptr %1, i64 56
  store ptr %3, ptr %4, align 8, !tbaa !42
  %5 = getelementptr inbounds nuw i8, ptr %1, i64 64
  store ptr null, ptr %5, align 8, !tbaa !40
  store ptr %1, ptr %0, align 8, !tbaa !39
  ret void
}